; Function Attrs: nounwind uwtable
define hidden void @zim_SplDoublyLinkedList_offsetExists(ptr noundef readonly captures(none) %0, ptr noundef writeonly captures(none) %1) #0 {
  %3 = alloca i64, align 8
  call void @llvm.lifetime.start.p0(i64 8, ptr nonnull %3) #13
  %4 = getelementptr inbounds nuw i8, ptr %0, i64 44
  %5 = load i32, ptr %4, align 4, !tbaa !4
  %6 = call i32 (i32, ptr, ...) @zend_parse_parameters(i32 noundef %5, ptr noundef nonnull @.str.4, ptr noundef nonnull %3) #13
  %7 = icmp eq i32 %6, -1
  br i1 %7, label %8, label %11

8:                                                ; preds = %2
  %9 = load ptr, ptr getelementptr inbounds nuw (i8, ptr @executor_globals, i64 960), align 8, !tbaa !7
  %10 = icmp ne ptr %9, null
  call void @llvm.assume(i1 %10)
  br label %27

11:                                               ; preds = %2
  %12 = load i64, ptr %3, align 8, !tbaa !65
  %13 = icmp sgt i64 %12, -1
  br i1 %13, label %14, label %24

14:                                               ; preds = %11
  %15 = getelementptr inbounds nuw i8, ptr %0, i64 32
  %16 = load ptr, ptr %15, align 8, !tbaa !4
  %17 = getelementptr inbounds i8, ptr %16, i64 -72
  %18 = load ptr, ptr %17, align 8, !tbaa !43
  %19 = getelementptr inbounds nuw i8, ptr %18, i64 16
  %20 = load i32, ptr %19, align 8, !tbaa !58
  %21 = sext i32 %20 to i64
  %22 = icmp slt i64 %12, %21
  %23 = select i1 %22, i32 3, i32 2
  br label %24

24:                                               ; preds = %14, %11
  %25 = phi i32 [ 2, %11 ], [ %23, %14 ]
  %26 = getelementptr inbounds nuw i8, ptr %1, i64 8
  store i32 %25, ptr %26, align 8, !tbaa !4
  br label %27

27:                                               ; preds = %24, %8
  call void @llvm.lifetime.end.p0(i64 8, ptr nonnull %3) #13
  ret void
}